; Function Attrs: mustprogress uwtable
define void @_ZN3nix10dumpStringESt17basic_string_viewIcSt11char_traitsIcEERNS_4SinkE(i64 %0, ptr %1, ptr noundef nonnull align 8 dereferenceable(8) %2) local_unnamed_addr #4 personality ptr @__gxx_personality_v0 {
  %4 = tail call noundef nonnull align 8 dereferenceable(8) ptr @_ZN3nixlsERNS_4SinkESt17basic_string_viewIcSt11char_traitsIcEE(ptr noundef nonnull align 8 dereferenceable(8) %2, i64 13, ptr nonnull @.str.15)
  %5 = tail call noundef nonnull align 8 dereferenceable(8) ptr @_ZN3nixlsERNS_4SinkESt17basic_string_viewIcSt11char_traitsIcEE(ptr noundef nonnull align 8 dereferenceable(8) %4, i64 1, ptr nonnull @.str)
  %6 = tail call noundef nonnull align 8 dereferenceable(8) ptr @_ZN3nixlsERNS_4SinkESt17basic_string_viewIcSt11char_traitsIcEE(ptr noundef nonnull align 8 dereferenceable(8) %5, i64 4, ptr nonnull @.str.7)
  %7 = tail call noundef nonnull align 8 dereferenceable(8) ptr @_ZN3nixlsERNS_4SinkESt17basic_string_viewIcSt11char_traitsIcEE(ptr noundef nonnull align 8 dereferenceable(8) %6, i64 7, ptr nonnull @.str.8)
  %8 = tail call noundef nonnull align 8 dereferenceable(8) ptr @_ZN3nixlsERNS_4SinkESt17basic_string_viewIcSt11char_traitsIcEE(ptr noundef nonnull align 8 dereferenceable(8) %7, i64 8, ptr nonnull @.str.9)
  %9 = tail call noundef nonnull align 8 dereferenceable(8) ptr @_ZN3nixlsERNS_4SinkESt17basic_string_viewIcSt11char_traitsIcEE(ptr noundef nonnull align 8 dereferenceable(8) %8, i64 %0, ptr %1)
  %10 = tail call noundef nonnull align 8 dereferenceable(8) ptr @_ZN3nixlsERNS_4SinkESt17basic_string_viewIcSt11char_traitsIcEE(ptr noundef nonnull align 8 dereferenceable(8) %9, i64 1, ptr nonnull @.str.10)
  ret void
}